; ModuleID = '61/622.c'
source_filename = "61/622.c"
target datalayout = "e-m:e-p270:32:32-p271:32:32-p272:64:64-i64:64-f80:128-n8:16:32:64-S128"
target triple = "x86_64-pc-linux-gnu"

@.str = private unnamed_addr constant [3 x i8] c"%d\00", align 1
@.str.1 = private unnamed_addr constant [4 x i8] c"%d\0A\00", align 1

; Function Attrs: noinline nounwind uwtable
define dso_local i32 @main(i32 %0, i8** %1) #0 {
  %3 = alloca i32, align 4
  %4 = alloca i32, align 4
  %5 = alloca i8**, align 8
  %6 = alloca i32, align 4
  %7 = alloca i32, align 4
  %8 = alloca i32, align 4
  %9 = alloca [1000 x i32], align 16
  %10 = alloca [30 x i32], align 16
  store i32 0, i32* %3, align 4
  store i32 %0, i32* %4, align 4
  store i8** %1, i8*** %5, align 8
  %11 = call i32 (i8*, ...) @__isoc99_scanf(i8* getelementptr inbounds ([3 x i8], [3 x i8]* @.str, i64 0, i64 0), i32* %6)
  store i32 0, i32* %7, align 4
  br label %12

12:                                               ; preds = %21, %2
  %13 = load i32, i32* %7, align 4
  %14 = load i32, i32* %6, align 4
  %15 = icmp slt i32 %13, %14
  br i1 %15, label %16, label %24

16:                                               ; preds = %12
  %17 = load i32, i32* %7, align 4
  %18 = sext i32 %17 to i64
  %19 = getelementptr inbounds [1000 x i32], [1000 x i32]* %9, i64 0, i64 %18
  %20 = call i32 (i8*, ...) @__isoc99_scanf(i8* getelementptr inbounds ([3 x i8], [3 x i8]* @.str, i64 0, i64 0), i32* %19)
  br label %21

21:                                               ; preds = %16
  %22 = load i32, i32* %7, align 4
  %23 = add nsw i32 %22, 1
  store i32 %23, i32* %7, align 4
  br label %12

24:                                               ; preds = %12
  store i32 0, i32* %7, align 4
  br label %25

25:                                               ; preds = %74, %24
  %26 = load i32, i32* %7, align 4
  %27 = load i32, i32* %6, align 4
  %28 = icmp slt i32 %26, %27
  br i1 %28, label %29, label %77

29:                                               ; preds = %25
  store i32 0, i32* %8, align 4
  br label %30

30:                                               ; preds = %64, %29
  %31 = load i32, i32* %8, align 4
  %32 = load i32, i32* %7, align 4
  %33 = sext i32 %32 to i64
  %34 = getelementptr inbounds [1000 x i32], [1000 x i32]* %9, i64 0, i64 %33
  %35 = load i32, i32* %34, align 4
  %36 = icmp slt i32 %31, %35
  br i1 %36, label %37, label %67

37:                                               ; preds = %30
  %38 = load i32, i32* %8, align 4
  %39 = icmp eq i32 %38, 0
  br i1 %39, label %40, label %42

40:                                               ; preds = %37
  %41 = getelementptr inbounds [30 x i32], [30 x i32]* %10, i64 0, i64 0
  store i32 1, i32* %41, align 16
  br label %63

42:                                               ; preds = %37
  %43 = load i32, i32* %8, align 4
  %44 = icmp eq i32 %43, 1
  br i1 %44, label %45, label %47

45:                                               ; preds = %42
  %46 = getelementptr inbounds [30 x i32], [30 x i32]* %10, i64 0, i64 1
  store i32 1, i32* %46, align 4
  br label %62

47:                                               ; preds = %42
  %48 = load i32, i32* %8, align 4
  %49 = sub nsw i32 %48, 1
  %50 = sext i32 %49 to i64
  %51 = getelementptr inbounds [30 x i32], [30 x i32]* %10, i64 0, i64 %50
  %52 = load i32, i32* %51, align 4
  %53 = load i32, i32* %8, align 4
  %54 = sub nsw i32 %53, 2
  %55 = sext i32 %54 to i64
  %56 = getelementptr inbounds [30 x i32], [30 x i32]* %10, i64 0, i64 %55
  %57 = load i32, i32* %56, align 4
  %58 = add nsw i32 %52, %57
  %59 = load i32, i32* %8, align 4
  %60 = sext i32 %59 to i64
  %61 = getelementptr inbounds [30 x i32], [30 x i32]* %10, i64 0, i64 %60
  store i32 %58, i32* %61, align 4
  br label %62

62:                                               ; preds = %47, %45
  br label %63

63:                                               ; preds = %62, %40
  br label %64

64:                                               ; preds = %63
  %65 = load i32, i32* %8, align 4
  %66 = add nsw i32 %65, 1
  store i32 %66, i32* %8, align 4
  br label %30

67:                                               ; preds = %30
  %68 = load i32, i32* %8, align 4
  %69 = sub nsw i32 %68, 1
  %70 = sext i32 %69 to i64
  %71 = getelementptr inbounds [30 x i32], [30 x i32]* %10, i64 0, i64 %70
  %72 = load i32, i32* %71, align 4
  %73 = call i32 (i8*, ...) @printf(i8* getelementptr inbounds ([4 x i8], [4 x i8]* @.str.1, i64 0, i64 0), i32 %72)
  br label %74

74:                                               ; preds = %67
  %75 = load i32, i32* %7, align 4
  %76 = add nsw i32 %75, 1
  store i32 %76, i32* %7, align 4
  br label %25

77:                                               ; preds = %25
  ret i32 0
}

declare dso_local i32 @__isoc99_scanf(i8*, ...) #1

declare dso_local i32 @printf(i8*, ...) #1


!llvm.module.flags = !{!0}
!llvm.ident = !{!1}

!0 = !{i32 1, !"wchar_size", i32 4}
!1 = !{!"clang version 10.0.0-4ubuntu1 "}
