; ModuleID = 'source-C-CXX/60/622.c'
source_filename = "source-C-CXX/60/622.c"
target datalayout = "e-m:e-p270:32:32-p271:32:32-p272:64:64-i64:64-f80:128-n8:16:32:64-S128"
target triple = "x86_64-pc-linux-gnu"

@.str = private unnamed_addr constant [3 x i8] c"%d\00", align 1
@.str.1 = private unnamed_addr constant [4 x i8] c"%d\0A\00", align 1

; Function Attrs: nofree nounwind sspstrong uwtable
define dso_local i32 @main(i32 %0, i8** nocapture readnone %1) local_unnamed_addr #0 {
  %3 = alloca i32, align 4
  %4 = alloca [1000 x i32], align 16
  %5 = alloca [30 x i32], align 16
  %6 = bitcast i32* %3 to i8*
  call void @llvm.lifetime.start.p0i8(i64 4, i8* nonnull %6) #3
  %7 = call i32 (i8*, ...) @__isoc99_scanf(i8* getelementptr inbounds ([3 x i8], [3 x i8]* @.str, i64 0, i64 0), i32* nonnull %3)
  %8 = bitcast [1000 x i32]* %4 to i8*
  call void @llvm.lifetime.start.p0i8(i64 4000, i8* nonnull %8) #3
  %9 = load i32, i32* %3, align 4, !tbaa !5
  %10 = icmp sgt i32 %9, 0
  br i1 %10, label %13, label %11

11:                                               ; preds = %2
  %12 = bitcast [30 x i32]* %5 to i8*
  call void @llvm.lifetime.start.p0i8(i64 120, i8* nonnull %12) #3
  br label %61

13:                                               ; preds = %2, %13
  %14 = phi i64 [ %17, %13 ], [ 0, %2 ]
  %15 = getelementptr inbounds [1000 x i32], [1000 x i32]* %4, i64 0, i64 %14
  %16 = call i32 (i8*, ...) @__isoc99_scanf(i8* getelementptr inbounds ([3 x i8], [3 x i8]* @.str, i64 0, i64 0), i32* nonnull %15)
  %17 = add nuw nsw i64 %14, 1
  %18 = load i32, i32* %3, align 4, !tbaa !5
  %19 = sext i32 %18 to i64
  %20 = icmp slt i64 %17, %19
  br i1 %20, label %13, label %21, !llvm.loop !9

21:                                               ; preds = %13
  %22 = bitcast [30 x i32]* %5 to i8*
  call void @llvm.lifetime.start.p0i8(i64 120, i8* nonnull %22) #3
  %23 = getelementptr inbounds [30 x i32], [30 x i32]* %5, i64 0, i64 1
  %24 = getelementptr inbounds [30 x i32], [30 x i32]* %5, i64 0, i64 0
  %25 = icmp sgt i32 %18, 0
  br i1 %25, label %26, label %61

26:                                               ; preds = %21, %50
  %27 = phi i64 [ %57, %50 ], [ 0, %21 ]
  %28 = getelementptr inbounds [1000 x i32], [1000 x i32]* %4, i64 0, i64 %27
  %29 = load i32, i32* %28, align 4, !tbaa !5
  %30 = icmp sgt i32 %29, 0
  br i1 %30, label %31, label %50

31:                                               ; preds = %26
  %32 = zext i32 %29 to i64
  br label %33

33:                                               ; preds = %31, %47
  %34 = phi i64 [ 0, %31 ], [ %48, %47 ]
  %35 = trunc i64 %34 to i32
  switch i32 %35, label %38 [
    i32 0, label %36
    i32 1, label %37
  ]

36:                                               ; preds = %33
  store i32 1, i32* %24, align 16, !tbaa !5
  br label %47

37:                                               ; preds = %33
  store i32 1, i32* %23, align 4, !tbaa !5
  br label %47

38:                                               ; preds = %33
  %39 = add nsw i64 %34, -1
  %40 = getelementptr inbounds [30 x i32], [30 x i32]* %5, i64 0, i64 %39
  %41 = load i32, i32* %40, align 4, !tbaa !5
  %42 = add nsw i64 %34, -2
  %43 = getelementptr inbounds [30 x i32], [30 x i32]* %5, i64 0, i64 %42
  %44 = load i32, i32* %43, align 4, !tbaa !5
  %45 = add nsw i32 %44, %41
  %46 = getelementptr inbounds [30 x i32], [30 x i32]* %5, i64 0, i64 %34
  store i32 %45, i32* %46, align 4, !tbaa !5
  br label %47

47:                                               ; preds = %36, %38, %37
  %48 = add nuw nsw i64 %34, 1
  %49 = icmp eq i64 %48, %32
  br i1 %49, label %50, label %33, !llvm.loop !11

50:                                               ; preds = %47, %26
  %51 = phi i32 [ 0, %26 ], [ %29, %47 ]
  %52 = add nsw i32 %51, -1
  %53 = sext i32 %52 to i64
  %54 = getelementptr inbounds [30 x i32], [30 x i32]* %5, i64 0, i64 %53
  %55 = load i32, i32* %54, align 4, !tbaa !5
  %56 = call i32 (i8*, ...) @printf(i8* nonnull dereferenceable(1) getelementptr inbounds ([4 x i8], [4 x i8]* @.str.1, i64 0, i64 0), i32 %55)
  %57 = add nuw nsw i64 %27, 1
  %58 = load i32, i32* %3, align 4, !tbaa !5
  %59 = sext i32 %58 to i64
  %60 = icmp slt i64 %57, %59
  br i1 %60, label %26, label %61, !llvm.loop !12

61:                                               ; preds = %50, %11, %21
  %62 = bitcast [30 x i32]* %5 to i8*
  call void @llvm.lifetime.end.p0i8(i64 120, i8* nonnull %62) #3
  call void @llvm.lifetime.end.p0i8(i64 4000, i8* nonnull %8) #3
  call void @llvm.lifetime.end.p0i8(i64 4, i8* nonnull %6) #3
  ret i32 0
}

; Function Attrs: argmemonly mustprogress nofree nosync nounwind willreturn
declare void @llvm.lifetime.start.p0i8(i64 immarg, i8* nocapture) #1

; Function Attrs: nofree nounwind
declare noundef i32 @__isoc99_scanf(i8* nocapture noundef readonly, ...) local_unnamed_addr #2

; Function Attrs: nofree nounwind
declare noundef i32 @printf(i8* nocapture noundef readonly, ...) local_unnamed_addr #2

; Function Attrs: argmemonly mustprogress nofree nosync nounwind willreturn
declare void @llvm.lifetime.end.p0i8(i64 immarg, i8* nocapture) #1


!llvm.module.flags = !{!0, !1, !2, !3}
!llvm.ident = !{!4}

!0 = !{i32 1, !"wchar_size", i32 4}
!1 = !{i32 7, !"PIC Level", i32 2}
!2 = !{i32 7, !"PIE Level", i32 2}
!3 = !{i32 7, !"uwtable", i32 1}
!4 = !{!"clang version 13.0.0"}
!5 = !{!6, !6, i64 0}
!6 = !{!"int", !7, i64 0}
!7 = !{!"omnipotent char", !8, i64 0}
!8 = !{!"Simple C/C++ TBAA"}
!9 = distinct !{!9, !10}
!10 = !{!"llvm.loop.mustprogress"}
!11 = distinct !{!11, !10}
!12 = distinct !{!12, !10}
